; Function Attrs: mustprogress uwtable
define void @_ZNK32pxrInternal_v0_24__pxrReserved__8Usd_Clip17GetPropertyAtPathERKNS_7SdfPathE(ptr dead_on_unwind noalias writable sret(%"class.pxrInternal_v0_24__pxrReserved__::SdfHandle") align 8 %0, ptr noundef nonnull align 8 dereferenceable(208) %1, ptr noundef nonnull align 4 dereferenceable(8) %2) local_unnamed_addr #0 align 2 personality ptr @__gxx_personality_v0 {
  %4 = alloca %"class.pxrInternal_v0_24__pxrReserved__::TfCallContext", align 8
  %5 = alloca %"class.pxrInternal_v0_24__pxrReserved__::TfRefPtr.3", align 8
  %6 = alloca %"class.pxrInternal_v0_24__pxrReserved__::SdfPath", align 4
  call void @_ZNK32pxrInternal_v0_24__pxrReserved__8Usd_Clip16_GetLayerForClipEv(ptr dead_on_unwind nonnull writable sret(%"class.pxrInternal_v0_24__pxrReserved__::TfRefPtr.3") align 8 %5, ptr noundef nonnull align 8 dereferenceable(208) %1)
  call void @llvm.lifetime.start.p0(i64 40, ptr nonnull %4)
  %7 = load ptr, ptr %5, align 8
  %.not.i = icmp eq ptr %7, null
  br i1 %.not.i, label %8, label %13

8:                                                ; preds = %3
  store ptr @.str.18, ptr %4, align 8
  %9 = getelementptr inbounds nuw i8, ptr %4, i64 8
  store ptr @__func__._ZNK32pxrInternal_v0_24__pxrReserved__8TfRefPtrINS_8SdfLayerEEptEv, ptr %9, align 8
  %10 = getelementptr inbounds nuw i8, ptr %4, i64 16
  store i64 936, ptr %10, align 8
  %11 = getelementptr inbounds nuw i8, ptr %4, i64 24
  store ptr @__PRETTY_FUNCTION__._ZNK32pxrInternal_v0_24__pxrReserved__8TfRefPtrINS_8SdfLayerEEptEv, ptr %11, align 8
  %12 = getelementptr inbounds nuw i8, ptr %4, i64 32
  store i8 0, ptr %12, align 8
  invoke void @_ZN32pxrInternal_v0_24__pxrReserved__40Tf_PostNullSmartPtrDereferenceFatalErrorERKNS_13TfCallContextEPKc(ptr noundef nonnull align 8 dereferenceable(33) %4, ptr noundef nonnull @_ZTSN32pxrInternal_v0_24__pxrReserved__8TfRefPtrINS_8SdfLayerEEE) #17
          to label %.noexc unwind label %59

.noexc:                                           ; preds = %8
  unreachable

13:                                               ; preds = %3
  call void @llvm.lifetime.end.p0(i64 40, ptr nonnull %4)
  %14 = getelementptr inbounds nuw i8, ptr %1, i64 16
  %15 = getelementptr inbounds nuw i8, ptr %1, i64 104
  invoke void @_ZNK32pxrInternal_v0_24__pxrReserved__7SdfPath13ReplacePrefixERKS0_S2_b(ptr dead_on_unwind nonnull writable sret(%"class.pxrInternal_v0_24__pxrReserved__::SdfPath") align 4 %6, ptr noundef nonnull align 4 dereferenceable(8) %2, ptr noundef nonnull align 4 dereferenceable(8) %14, ptr noundef nonnull align 4 dereferenceable(8) %15, i1 noundef zeroext true)
          to label %_ZNK32pxrInternal_v0_24__pxrReserved__8Usd_Clip20_TranslatePathToClipERKNS_7SdfPathE.exit unwind label %59

_ZNK32pxrInternal_v0_24__pxrReserved__8Usd_Clip20_TranslatePathToClipERKNS_7SdfPathE.exit: ; preds = %13
  invoke void @_ZN32pxrInternal_v0_24__pxrReserved__8SdfLayer17GetPropertyAtPathERKNS_7SdfPathE(ptr dead_on_unwind writable sret(%"class.pxrInternal_v0_24__pxrReserved__::SdfHandle") align 8 %0, ptr noundef nonnull align 8 dereferenceable(557) %7, ptr noundef nonnull align 4 dereferenceable(8) %6)
          to label %16 unwind label %61

16:                                               ; preds = %_ZNK32pxrInternal_v0_24__pxrReserved__8Usd_Clip20_TranslatePathToClipERKNS_7SdfPathE.exit
  %17 = load i32, ptr %6, align 4
  %.not.i.i = icmp eq i32 %17, 0
  br i1 %.not.i.i, label %_ZN32pxrInternal_v0_24__pxrReserved__7SdfPathD2Ev.exit, label %18

18:                                               ; preds = %16
  %19 = and i32 %17, 255
  %20 = lshr i32 %17, 8
  %21 = zext nneg i32 %19 to i64
  %22 = getelementptr inbounds nuw [257 x ptr], ptr @_ZN32pxrInternal_v0_24__pxrReserved__8Sdf_PoolINS_15Sdf_PathPrimTagELj24ELj8ELj16384EE13_regionStartsE, i64 0, i64 %21
  %23 = load ptr, ptr %22, align 8
  %24 = mul nuw nsw i32 %20, 24
  %25 = zext nneg i32 %24 to i64
  %26 = getelementptr inbounds nuw i8, ptr %23, i64 %25
  %27 = getelementptr inbounds nuw i8, ptr %26, i64 8
  %28 = atomicrmw sub ptr %27, i32 1 seq_cst, align 4
  %29 = and i32 %28, 2147483647
  %30 = icmp eq i32 %29, 1
  br i1 %30, label %31, label %_ZN32pxrInternal_v0_24__pxrReserved__7SdfPathD2Ev.exit

31:                                               ; preds = %18
  invoke void @_ZNK32pxrInternal_v0_24__pxrReserved__12Sdf_PathNode8_DestroyEv(ptr noundef nonnull align 8 dereferenceable(16) %26)
          to label %_ZN32pxrInternal_v0_24__pxrReserved__7SdfPathD2Ev.exit unwind label %32

32:                                               ; preds = %31
  %33 = landingpad { ptr, i32 }
          catch ptr null
  %34 = extractvalue { ptr, i32 } %33, 0
  call void @__clang_call_terminate(ptr %34) #19
  unreachable

_ZN32pxrInternal_v0_24__pxrReserved__7SdfPathD2Ev.exit: ; preds = %16, %18, %31
  %35 = load ptr, ptr %5, align 8
  %.not.i.i.i = icmp eq ptr %35, null
  br i1 %.not.i.i.i, label %_ZN32pxrInternal_v0_24__pxrReserved__8TfRefPtrINS_8SdfLayerEED2Ev.exit, label %36

36:                                               ; preds = %_ZN32pxrInternal_v0_24__pxrReserved__7SdfPathD2Ev.exit
  %37 = getelementptr inbounds nuw i8, ptr %35, i64 8
  %38 = load atomic i32, ptr %37 monotonic, align 4
  %39 = icmp slt i32 %38, 0
  br i1 %39, label %40, label %_ZN32pxrInternal_v0_24__pxrReserved__30Tf_RefPtr_UniqueChangedCounter9RemoveRefEPKNS_9TfRefBaseE.exit.i.i

40:                                               ; preds = %36
  %.not68.i.i.i = icmp eq i32 %38, -2
  br i1 %.not68.i.i.i, label %48, label %41

41:                                               ; preds = %40
  %42 = add nsw i32 %38, 1
  %43 = cmpxchg weak ptr %37, i32 %38, i32 %42 release monotonic, align 4
  %44 = extractvalue { i32, i1 } %43, 1
  %45 = extractvalue { i32, i1 } %43, 0
  br i1 %44, label %46, label %48

46:                                               ; preds = %41
  %47 = icmp eq i32 %38, -1
  br i1 %47, label %52, label %_ZN32pxrInternal_v0_24__pxrReserved__8TfRefPtrINS_8SdfLayerEED2Ev.exit

48:                                               ; preds = %41, %40
  %.067.i.i.i = phi i32 [ %45, %41 ], [ -2, %40 ]
  %49 = invoke noundef zeroext i1 @_ZN32pxrInternal_v0_24__pxrReserved__30Tf_RefPtr_UniqueChangedCounter21_RemoveRefMaybeLockedEPKNS_9TfRefBaseEi(ptr noundef nonnull %35, i32 noundef %.067.i.i.i)
          to label %.noexc.i unwind label %56

.noexc.i:                                         ; preds = %48
  br i1 %49, label %52, label %_ZN32pxrInternal_v0_24__pxrReserved__8TfRefPtrINS_8SdfLayerEED2Ev.exit

_ZN32pxrInternal_v0_24__pxrReserved__30Tf_RefPtr_UniqueChangedCounter9RemoveRefEPKNS_9TfRefBaseE.exit.i.i: ; preds = %36
  %50 = atomicrmw sub ptr %37, i32 1 release, align 4
  %51 = icmp eq i32 %50, 1
  br i1 %51, label %52, label %_ZN32pxrInternal_v0_24__pxrReserved__8TfRefPtrINS_8SdfLayerEED2Ev.exit

52:                                               ; preds = %_ZN32pxrInternal_v0_24__pxrReserved__30Tf_RefPtr_UniqueChangedCounter9RemoveRefEPKNS_9TfRefBaseE.exit.i.i, %.noexc.i, %46
  %53 = load ptr, ptr %35, align 8
  %54 = getelementptr inbounds nuw i8, ptr %53, i64 8
  %55 = load ptr, ptr %54, align 8
  call void %55(ptr noundef nonnull align 8 dereferenceable(12) %35) #18
  br label %_ZN32pxrInternal_v0_24__pxrReserved__8TfRefPtrINS_8SdfLayerEED2Ev.exit

56:                                               ; preds = %48
  %57 = landingpad { ptr, i32 }
          catch ptr null
  %58 = extractvalue { ptr, i32 } %57, 0
  call void @__clang_call_terminate(ptr %58) #19
  unreachable

_ZN32pxrInternal_v0_24__pxrReserved__8TfRefPtrINS_8SdfLayerEED2Ev.exit: ; preds = %_ZN32pxrInternal_v0_24__pxrReserved__7SdfPathD2Ev.exit, %46, %.noexc.i, %_ZN32pxrInternal_v0_24__pxrReserved__30Tf_RefPtr_UniqueChangedCounter9RemoveRefEPKNS_9TfRefBaseE.exit.i.i, %52
  ret void

59:                                               ; preds = %13, %8
  %60 = landingpad { ptr, i32 }
          cleanup
  br label %63

61:                                               ; preds = %_ZNK32pxrInternal_v0_24__pxrReserved__8Usd_Clip20_TranslatePathToClipERKNS_7SdfPathE.exit
  %62 = landingpad { ptr, i32 }
          cleanup
  call void @_ZN32pxrInternal_v0_24__pxrReserved__7SdfPathD2Ev(ptr noundef nonnull align 4 dereferenceable(8) %6) #18
  br label %63

63:                                               ; preds = %61, %59
  %.pn = phi { ptr, i32 } [ %62, %61 ], [ %60, %59 ]
  call void @_ZN32pxrInternal_v0_24__pxrReserved__8TfRefPtrINS_8SdfLayerEED2Ev(ptr noundef nonnull align 8 dereferenceable(8) %5) #18
  resume { ptr, i32 } %.pn
}